target datalayout = "e-m:e-p270:32:32-p271:32:32-p272:64:64-i64:64-i128:128-f80:128-n8:16:32:64-S128"
target triple = "x86_64-unknown-linux-gnu"

%"class.grpc_core::Timestamp" = type { i64 }
%struct.grpc_closure = type { %union.anon.68, ptr, ptr, %union.anon.69 }
%union.anon.68 = type { ptr }
%union.anon.69 = type { i64 }
%"class.grpc_core::(anonymous namespace)::StateWatcher::WatcherTimerInitState" = type { ptr, %"class.grpc_core::Timestamp", %struct.grpc_closure }

; Function Attrs: mustprogress uwtable
define internal void @_ZN9grpc_core12_GLOBAL__N_112StateWatcher21WatcherTimerInitState16WatcherTimerInitEPvN4absl12lts_202308026StatusE(ptr noundef %arg, ptr noundef %0) #4 align 2 {
entry:
  %arg.addr = alloca ptr, align 8
  %.indirect_addr = alloca ptr, align 8
  %self = alloca ptr, align 8
  %agg.tmp = alloca %"class.grpc_core::Timestamp", align 8
  store ptr %arg, ptr %arg.addr, align 8
  store ptr %0, ptr %.indirect_addr, align 8
  %1 = load ptr, ptr %arg.addr, align 8
  store ptr %1, ptr %self, align 8
  %2 = load ptr, ptr %self, align 8
  %state_watcher_ = getelementptr inbounds %"class.grpc_core::(anonymous namespace)::StateWatcher::WatcherTimerInitState", ptr %2, i32 0, i32 0
  %3 = load ptr, ptr %state_watcher_, align 8
  %4 = load ptr, ptr %self, align 8
  %deadline_ = getelementptr inbounds %"class.grpc_core::(anonymous namespace)::StateWatcher::WatcherTimerInitState", ptr %4, i32 0, i32 1
  call void @llvm.memcpy.p0.p0.i64(ptr align 8 %agg.tmp, ptr align 8 %deadline_, i64 8, i1 false)
  %coerce.dive = getelementptr inbounds %"class.grpc_core::Timestamp", ptr %agg.tmp, i32 0, i32 0
  %5 = load i64, ptr %coerce.dive, align 8
  call void @_ZN9grpc_core12_GLOBAL__N_112StateWatcher10StartTimerENS_9TimestampE(ptr noundef nonnull align 8 dereferenceable(153) %3, i64 %5)
  %6 = load ptr, ptr %self, align 8
  %isnull = icmp eq ptr %6, null
  br i1 %isnull, label %delete.end, label %delete.notnull

delete.notnull:                                   ; preds = %entry
  call void @_ZdlPv(ptr noundef %6) #18
  br label %delete.end

delete.end:                                       ; preds = %delete.notnull, %entry
  ret void
}