; Function Attrs: mustprogress uwtable
define internal void @_ZN9grpc_core12_GLOBAL__N_112StateWatcher21WatcherTimerInitState16WatcherTimerInitEPvN4absl12lts_202308026StatusE(ptr noundef %arg, ptr nocapture readnone %0) #5 align 2 {
entry:
  %1 = load ptr, ptr %arg, align 8
  %deadline_ = getelementptr inbounds i8, ptr %arg, i64 8
  %agg.tmp.sroa.0.0.copyload = load i64, ptr %deadline_, align 8
  tail call fastcc void @_ZN9grpc_core12_GLOBAL__N_112StateWatcher10StartTimerENS_9TimestampE(ptr noundef nonnull align 8 dereferenceable(153) %1, i64 %agg.tmp.sroa.0.0.copyload)
  tail call void @_ZdlPv(ptr noundef %arg) #22
  ret void
}